; Function Attrs: nounwind uwtable
define hidden void @_mi_page_free(ptr noundef %0, ptr noundef captures(address) %1, i1 noundef zeroext %2) local_unnamed_addr #1 {
  %4 = getelementptr inbounds nuw i8, ptr %0, i64 14
  %5 = load i8, ptr %4, align 2
  %6 = and i8 %5, -3
  store i8 %6, ptr %4, align 2
  %7 = getelementptr inbounds nuw i8, ptr %0, i64 48
  %8 = load atomic i64, ptr %7 monotonic, align 8
  %9 = inttoptr i64 %8 to ptr
  %10 = load ptr, ptr %9, align 8, !tbaa !47
  %11 = getelementptr inbounds nuw i8, ptr %10, i64 32
  tail call fastcc void @mi_page_queue_remove(ptr noundef %1, ptr noundef %0)
  store atomic i64 0, ptr %7 release, align 8
  tail call void @_mi_segment_page_free(ptr noundef %0, i1 noundef zeroext %2, ptr noundef nonnull %11) #8
  ret void
}